; ModuleID = '22/854.c'
source_filename = "22/854.c"
target datalayout = "e-m:e-p270:32:32-p271:32:32-p272:64:64-i64:64-f80:128-n8:16:32:64-S128"
target triple = "x86_64-pc-linux-gnu"

@.str = private unnamed_addr constant [5 x i8] c"%d%c\00", align 1
@.str.1 = private unnamed_addr constant [3 x i8] c"No\00", align 1
@.str.2 = private unnamed_addr constant [3 x i8] c"%d\00", align 1

; Function Attrs: noinline nounwind uwtable
define dso_local i32 @main() #0 {
  %1 = alloca i32, align 4
  %2 = alloca [300 x i32], align 16
  %3 = alloca i32, align 4
  %4 = alloca i32, align 4
  %5 = alloca i32, align 4
  %6 = alloca i8, align 1
  %7 = alloca i32, align 4
  %8 = alloca i32, align 4
  store i32 0, i32* %1, align 4
  store i32 0, i32* %3, align 4
  br label %9

9:                                                ; preds = %0, %21
  %10 = load i32, i32* %3, align 4
  %11 = sext i32 %10 to i64
  %12 = getelementptr inbounds [300 x i32], [300 x i32]* %2, i64 0, i64 %11
  %13 = call i32 (i8*, ...) @__isoc99_scanf(i8* getelementptr inbounds ([5 x i8], [5 x i8]* @.str, i64 0, i64 0), i32* %12, i8* %6)
  %14 = load i8, i8* %6, align 1
  %15 = sext i8 %14 to i32
  %16 = icmp eq i32 %15, 10
  br i1 %16, label %17, label %18

17:                                               ; preds = %9
  br label %22

18:                                               ; preds = %9
  %19 = load i32, i32* %3, align 4
  %20 = add nsw i32 %19, 1
  store i32 %20, i32* %3, align 4
  br label %21

21:                                               ; preds = %18
  br label %9

22:                                               ; preds = %17
  store i32 0, i32* %7, align 4
  store i32 0, i32* %4, align 4
  br label %23

23:                                               ; preds = %40, %22
  %24 = load i32, i32* %4, align 4
  %25 = load i32, i32* %3, align 4
  %26 = icmp sle i32 %24, %25
  br i1 %26, label %27, label %43

27:                                               ; preds = %23
  %28 = load i32, i32* %4, align 4
  %29 = sext i32 %28 to i64
  %30 = getelementptr inbounds [300 x i32], [300 x i32]* %2, i64 0, i64 %29
  %31 = load i32, i32* %30, align 4
  %32 = load i32, i32* %7, align 4
  %33 = icmp sge i32 %31, %32
  br i1 %33, label %34, label %39

34:                                               ; preds = %27
  %35 = load i32, i32* %4, align 4
  %36 = sext i32 %35 to i64
  %37 = getelementptr inbounds [300 x i32], [300 x i32]* %2, i64 0, i64 %36
  %38 = load i32, i32* %37, align 4
  store i32 %38, i32* %7, align 4
  br label %39

39:                                               ; preds = %34, %27
  br label %40

40:                                               ; preds = %39
  %41 = load i32, i32* %4, align 4
  %42 = add nsw i32 %41, 1
  store i32 %42, i32* %4, align 4
  br label %23

43:                                               ; preds = %23
  store i32 -1, i32* %8, align 4
  store i32 0, i32* %4, align 4
  br label %44

44:                                               ; preds = %68, %43
  %45 = load i32, i32* %4, align 4
  %46 = load i32, i32* %3, align 4
  %47 = icmp sle i32 %45, %46
  br i1 %47, label %48, label %71

48:                                               ; preds = %44
  %49 = load i32, i32* %4, align 4
  %50 = sext i32 %49 to i64
  %51 = getelementptr inbounds [300 x i32], [300 x i32]* %2, i64 0, i64 %50
  %52 = load i32, i32* %51, align 4
  %53 = load i32, i32* %8, align 4
  %54 = icmp sgt i32 %52, %53
  br i1 %54, label %55, label %67

55:                                               ; preds = %48
  %56 = load i32, i32* %4, align 4
  %57 = sext i32 %56 to i64
  %58 = getelementptr inbounds [300 x i32], [300 x i32]* %2, i64 0, i64 %57
  %59 = load i32, i32* %58, align 4
  %60 = load i32, i32* %7, align 4
  %61 = icmp slt i32 %59, %60
  br i1 %61, label %62, label %67

62:                                               ; preds = %55
  %63 = load i32, i32* %4, align 4
  %64 = sext i32 %63 to i64
  %65 = getelementptr inbounds [300 x i32], [300 x i32]* %2, i64 0, i64 %64
  %66 = load i32, i32* %65, align 4
  store i32 %66, i32* %8, align 4
  br label %67

67:                                               ; preds = %62, %55, %48
  br label %68

68:                                               ; preds = %67
  %69 = load i32, i32* %4, align 4
  %70 = add nsw i32 %69, 1
  store i32 %70, i32* %4, align 4
  br label %44

71:                                               ; preds = %44
  %72 = load i32, i32* %8, align 4
  %73 = icmp eq i32 %72, -1
  br i1 %73, label %74, label %76

74:                                               ; preds = %71
  %75 = call i32 (i8*, ...) @printf(i8* getelementptr inbounds ([3 x i8], [3 x i8]* @.str.1, i64 0, i64 0))
  br label %79

76:                                               ; preds = %71
  %77 = load i32, i32* %8, align 4
  %78 = call i32 (i8*, ...) @printf(i8* getelementptr inbounds ([3 x i8], [3 x i8]* @.str.2, i64 0, i64 0), i32 %77)
  br label %79

79:                                               ; preds = %76, %74
  ret i32 0
}

declare dso_local i32 @__isoc99_scanf(i8*, ...) #1

declare dso_local i32 @printf(i8*, ...) #1


!llvm.module.flags = !{!0}
!llvm.ident = !{!1}

!0 = !{i32 1, !"wchar_size", i32 4}
!1 = !{!"clang version 10.0.0-4ubuntu1 "}
